target datalayout = "e-m:e-p270:32:32-p271:32:32-p272:64:64-i64:64-i128:128-f80:128-n8:16:32:64-S128"
target triple = "x86_64-pc-linux-gnu"

%struct.Vec_Int_t_ = type { i32, i32, ptr }
%struct.Vec_Ptr_t_ = type { i32, i32, ptr }

@.str.2 = private unnamed_addr constant [6 x i8] c"%d : \00", align 1
@.str.3 = private unnamed_addr constant [8 x i8] c"%d(%d) \00", align 1
@.str.4 = private unnamed_addr constant [2 x i8] c"\0A\00", align 1

; Function Attrs: inlinehint nounwind uwtable
define internal i32 @Vec_IntEntry(ptr noundef %0, i32 noundef %1) #1 {
  %3 = alloca ptr, align 8
  %4 = alloca i32, align 4
  store ptr %0, ptr %3, align 8, !tbaa !20
  store i32 %1, ptr %4, align 4, !tbaa !8
  %5 = load ptr, ptr %3, align 8, !tbaa !20
  %6 = getelementptr inbounds nuw %struct.Vec_Int_t_, ptr %5, i32 0, i32 2
  %7 = load ptr, ptr %6, align 8, !tbaa !24
  %8 = load i32, ptr %4, align 4, !tbaa !8
  %9 = sext i32 %8 to i64
  %10 = getelementptr inbounds i32, ptr %7, i64 %9
  %11 = load i32, ptr %10, align 4, !tbaa !8
  ret i32 %11
}

; Function Attrs: inlinehint nounwind uwtable
define internal i32 @Vec_IntSize(ptr noundef %0) #1 {
  %2 = alloca ptr, align 8
  store ptr %0, ptr %2, align 8, !tbaa !20
  %3 = load ptr, ptr %2, align 8, !tbaa !20
  %4 = getelementptr inbounds nuw %struct.Vec_Int_t_, ptr %3, i32 0, i32 1
  %5 = load i32, ptr %4, align 4, !tbaa !21
  ret i32 %5
}

; Function Attrs: inlinehint nounwind uwtable
define internal ptr @Vec_PtrEntry(ptr noundef %0, i32 noundef %1) #1 {
  %3 = alloca ptr, align 8
  %4 = alloca i32, align 4
  store ptr %0, ptr %3, align 8, !tbaa !27
  store i32 %1, ptr %4, align 4, !tbaa !8
  %5 = load ptr, ptr %3, align 8, !tbaa !27
  %6 = getelementptr inbounds nuw %struct.Vec_Ptr_t_, ptr %5, i32 0, i32 2
  %7 = load ptr, ptr %6, align 8, !tbaa !28
  %8 = load i32, ptr %4, align 4, !tbaa !8
  %9 = sext i32 %8 to i64
  %10 = getelementptr inbounds ptr, ptr %7, i64 %9
  %11 = load ptr, ptr %10, align 8, !tbaa !30
  ret ptr %11
}

; Function Attrs: inlinehint nounwind uwtable
define internal i32 @Vec_PtrSize(ptr noundef %0) #1 {
  %2 = alloca ptr, align 8
  store ptr %0, ptr %2, align 8, !tbaa !27
  %3 = load ptr, ptr %2, align 8, !tbaa !27
  %4 = getelementptr inbounds nuw %struct.Vec_Ptr_t_, ptr %3, i32 0, i32 1
  %5 = load i32, ptr %4, align 4, !tbaa !37
  ret i32 %5
}

; Function Attrs: nounwind uwtable
define ptr @Amap_LibLookupTableAlloc(ptr noundef %0, i32 noundef %1) #0 {
  %3 = alloca ptr, align 8
  %4 = alloca i32, align 4
  %5 = alloca ptr, align 8
  %6 = alloca ptr, align 8
  %7 = alloca i32, align 4
  %8 = alloca i32, align 4
  %9 = alloca i32, align 4
  %10 = alloca i32, align 4
  %11 = alloca i32, align 4
  %12 = alloca i32, align 4
  store ptr %0, ptr %3, align 8, !tbaa !27
  store i32 %1, ptr %4, align 4, !tbaa !8
  call void @llvm.lifetime.start.p0(i64 8, ptr %5) #7
  call void @llvm.lifetime.start.p0(i64 8, ptr %6) #7
  call void @llvm.lifetime.start.p0(i64 4, ptr %7) #7
  call void @llvm.lifetime.start.p0(i64 4, ptr %8) #7
  call void @llvm.lifetime.start.p0(i64 4, ptr %9) #7
  call void @llvm.lifetime.start.p0(i64 4, ptr %10) #7
  call void @llvm.lifetime.start.p0(i64 4, ptr %11) #7
  call void @llvm.lifetime.start.p0(i64 4, ptr %12) #7
  %13 = load ptr, ptr %3, align 8, !tbaa !27
  %14 = call i32 @Vec_PtrSize(ptr noundef %13)
  store i32 %14, ptr %10, align 4, !tbaa !8
  store i32 %14, ptr %11, align 4, !tbaa !8
  store i32 0, ptr %7, align 4, !tbaa !8
  br label %15

15:                                               ; preds = %31, %2
  %16 = load i32, ptr %7, align 4, !tbaa !8
  %17 = load ptr, ptr %3, align 8, !tbaa !27
  %18 = call i32 @Vec_PtrSize(ptr noundef %17)
  %19 = icmp slt i32 %16, %18
  br i1 %19, label %20, label %24

20:                                               ; preds = %15
  %21 = load ptr, ptr %3, align 8, !tbaa !27
  %22 = load i32, ptr %7, align 4, !tbaa !8
  %23 = call ptr @Vec_PtrEntry(ptr noundef %21, i32 noundef %22)
  store ptr %23, ptr %5, align 8, !tbaa !20
  br label %24

24:                                               ; preds = %20, %15
  %25 = phi i1 [ false, %15 ], [ true, %20 ]
  br i1 %25, label %26, label %34

26:                                               ; preds = %24
  %27 = load ptr, ptr %5, align 8, !tbaa !20
  %28 = call i32 @Vec_IntSize(ptr noundef %27)
  %29 = load i32, ptr %11, align 4, !tbaa !8
  %30 = add nsw i32 %29, %28
  store i32 %30, ptr %11, align 4, !tbaa !8
  br label %31

31:                                               ; preds = %26
  %32 = load i32, ptr %7, align 4, !tbaa !8
  %33 = add nsw i32 %32, 1
  store i32 %33, ptr %7, align 4, !tbaa !8
  br label %15, !llvm.loop !48

34:                                               ; preds = %24
  %35 = load i32, ptr %10, align 4, !tbaa !8
  %36 = sext i32 %35 to i64
  %37 = mul i64 %36, 8
  %38 = load i32, ptr %11, align 4, !tbaa !8
  %39 = sext i32 %38 to i64
  %40 = mul i64 %39, 4
  %41 = add i64 %37, %40
  %42 = mul i64 1, %41
  %43 = call noalias ptr @malloc(i64 noundef %42) #9
  store ptr %43, ptr %6, align 8, !tbaa !49
  %44 = load ptr, ptr %6, align 8, !tbaa !49
  %45 = load i32, ptr %10, align 4, !tbaa !8
  %46 = sext i32 %45 to i64
  %47 = mul i64 %46, 8
  %48 = getelementptr inbounds nuw i8, ptr %44, i64 %47
  %49 = load ptr, ptr %6, align 8, !tbaa !49
  %50 = getelementptr inbounds ptr, ptr %49, i64 0
  store ptr %48, ptr %50, align 8, !tbaa !50
  store i32 0, ptr %9, align 4, !tbaa !8
  store i32 0, ptr %7, align 4, !tbaa !8
  br label %51

51:                                               ; preds = %131, %34
  %52 = load i32, ptr %7, align 4, !tbaa !8
  %53 = load ptr, ptr %3, align 8, !tbaa !27
  %54 = call i32 @Vec_PtrSize(ptr noundef %53)
  %55 = icmp slt i32 %52, %54
  br i1 %55, label %56, label %60

56:                                               ; preds = %51
  %57 = load ptr, ptr %3, align 8, !tbaa !27
  %58 = load i32, ptr %7, align 4, !tbaa !8
  %59 = call ptr @Vec_PtrEntry(ptr noundef %57, i32 noundef %58)
  store ptr %59, ptr %5, align 8, !tbaa !20
  br label %60

60:                                               ; preds = %56, %51
  %61 = phi i1 [ false, %51 ], [ true, %56 ]
  br i1 %61, label %62, label %134

62:                                               ; preds = %60
  %63 = load ptr, ptr %6, align 8, !tbaa !49
  %64 = getelementptr inbounds ptr, ptr %63, i64 0
  %65 = load ptr, ptr %64, align 8, !tbaa !50
  %66 = load i32, ptr %9, align 4, !tbaa !8
  %67 = sext i32 %66 to i64
  %68 = getelementptr inbounds i32, ptr %65, i64 %67
  %69 = load ptr, ptr %6, align 8, !tbaa !49
  %70 = load i32, ptr %7, align 4, !tbaa !8
  %71 = sext i32 %70 to i64
  %72 = getelementptr inbounds ptr, ptr %69, i64 %71
  store ptr %68, ptr %72, align 8, !tbaa !50
  %73 = load ptr, ptr %5, align 8, !tbaa !20
  %74 = call i32 @Vec_IntSize(ptr noundef %73)
  %75 = add nsw i32 %74, 1
  %76 = load i32, ptr %9, align 4, !tbaa !8
  %77 = add nsw i32 %76, %75
  store i32 %77, ptr %9, align 4, !tbaa !8
  %78 = load i32, ptr %4, align 4, !tbaa !8
  %79 = icmp ne i32 %78, 0
  br i1 %79, label %80, label %83

80:                                               ; preds = %62
  %81 = load i32, ptr %7, align 4, !tbaa !8
  %82 = call i32 (ptr, ...) @printf(ptr noundef @.str.2, i32 noundef %81)
  br label %83

83:                                               ; preds = %80, %62
  store i32 0, ptr %8, align 4, !tbaa !8
  br label %84

84:                                               ; preds = %114, %83
  %85 = load i32, ptr %8, align 4, !tbaa !8
  %86 = load ptr, ptr %5, align 8, !tbaa !20
  %87 = call i32 @Vec_IntSize(ptr noundef %86)
  %88 = icmp slt i32 %85, %87
  br i1 %88, label %89, label %93

89:                                               ; preds = %84
  %90 = load ptr, ptr %5, align 8, !tbaa !20
  %91 = load i32, ptr %8, align 4, !tbaa !8
  %92 = call i32 @Vec_IntEntry(ptr noundef %90, i32 noundef %91)
  store i32 %92, ptr %12, align 4, !tbaa !8
  br label %93

93:                                               ; preds = %89, %84
  %94 = phi i1 [ false, %84 ], [ true, %89 ]
  br i1 %94, label %95, label %117

95:                                               ; preds = %93
  %96 = load i32, ptr %12, align 4, !tbaa !8
  %97 = load ptr, ptr %6, align 8, !tbaa !49
  %98 = load i32, ptr %7, align 4, !tbaa !8
  %99 = sext i32 %98 to i64
  %100 = getelementptr inbounds ptr, ptr %97, i64 %99
  %101 = load ptr, ptr %100, align 8, !tbaa !50
  %102 = load i32, ptr %8, align 4, !tbaa !8
  %103 = sext i32 %102 to i64
  %104 = getelementptr inbounds i32, ptr %101, i64 %103
  store i32 %96, ptr %104, align 4, !tbaa !8
  %105 = load i32, ptr %4, align 4, !tbaa !8
  %106 = icmp ne i32 %105, 0
  br i1 %106, label %107, label %113

107:                                              ; preds = %95
  %108 = load i32, ptr %12, align 4, !tbaa !8
  %109 = and i32 %108, 65535
  %110 = load i32, ptr %12, align 4, !tbaa !8
  %111 = ashr i32 %110, 16
  %112 = call i32 (ptr, ...) @printf(ptr noundef @.str.3, i32 noundef %109, i32 noundef %111)
  br label %113

113:                                              ; preds = %107, %95
  br label %114

114:                                              ; preds = %113
  %115 = load i32, ptr %8, align 4, !tbaa !8
  %116 = add nsw i32 %115, 1
  store i32 %116, ptr %8, align 4, !tbaa !8
  br label %84, !llvm.loop !51

117:                                              ; preds = %93
  %118 = load i32, ptr %4, align 4, !tbaa !8
  %119 = icmp ne i32 %118, 0
  br i1 %119, label %120, label %122

120:                                              ; preds = %117
  %121 = call i32 (ptr, ...) @printf(ptr noundef @.str.4)
  br label %122

122:                                              ; preds = %120, %117
  %123 = load ptr, ptr %6, align 8, !tbaa !49
  %124 = load i32, ptr %7, align 4, !tbaa !8
  %125 = sext i32 %124 to i64
  %126 = getelementptr inbounds ptr, ptr %123, i64 %125
  %127 = load ptr, ptr %126, align 8, !tbaa !50
  %128 = load i32, ptr %8, align 4, !tbaa !8
  %129 = sext i32 %128 to i64
  %130 = getelementptr inbounds i32, ptr %127, i64 %129
  store i32 0, ptr %130, align 4, !tbaa !8
  br label %131

131:                                              ; preds = %122
  %132 = load i32, ptr %7, align 4, !tbaa !8
  %133 = add nsw i32 %132, 1
  store i32 %133, ptr %7, align 4, !tbaa !8
  br label %51, !llvm.loop !52

134:                                              ; preds = %60
  %135 = load ptr, ptr %6, align 8, !tbaa !49
  call void @llvm.lifetime.end.p0(i64 4, ptr %12) #7
  call void @llvm.lifetime.end.p0(i64 4, ptr %11) #7
  call void @llvm.lifetime.end.p0(i64 4, ptr %10) #7
  call void @llvm.lifetime.end.p0(i64 4, ptr %9) #7
  call void @llvm.lifetime.end.p0(i64 4, ptr %8) #7
  call void @llvm.lifetime.end.p0(i64 4, ptr %7) #7
  call void @llvm.lifetime.end.p0(i64 8, ptr %6) #7
  call void @llvm.lifetime.end.p0(i64 8, ptr %5) #7
  ret ptr %135
}