; Function Attrs: nofree nounwind uwtable
define noundef ptr @Amap_LibLookupTableAlloc(ptr noundef readonly captures(none) %0, i32 noundef %1) local_unnamed_addr #7 {
  %3 = getelementptr i8, ptr %0, i64 4
  %.val54 = load i32, ptr %3, align 4, !tbaa !33
  %4 = icmp sgt i32 %.val54, 0
  br i1 %4, label %.lr.ph, label %.critedge

.lr.ph:                                           ; preds = %2
  %5 = getelementptr i8, ptr %0, i64 8
  %.val49 = load ptr, ptr %5, align 8, !tbaa !16
  %wide.trip.count = zext nneg i32 %.val54 to i64
  br label %6

6:                                                ; preds = %.lr.ph, %6
  %indvars.iv = phi i64 [ 0, %.lr.ph ], [ %indvars.iv.next, %6 ]
  %.058 = phi i32 [ %.val54, %.lr.ph ], [ %10, %6 ]
  %7 = getelementptr inbounds nuw ptr, ptr %.val49, i64 %indvars.iv
  %8 = load ptr, ptr %7, align 8, !tbaa !18
  %9 = getelementptr i8, ptr %8, i64 4
  %.val52 = load i32, ptr %9, align 4, !tbaa !19
  %10 = add nsw i32 %.val52, %.058
  %indvars.iv.next = add nuw nsw i64 %indvars.iv, 1
  %exitcond.not = icmp eq i64 %indvars.iv.next, %wide.trip.count
  br i1 %exitcond.not, label %.critedge, label %6, !llvm.loop !43

.critedge:                                        ; preds = %6, %2
  %.0.lcssa = phi i32 [ %.val54, %2 ], [ %10, %6 ]
  %11 = sext i32 %.val54 to i64
  %12 = shl nsw i64 %11, 3
  %13 = sext i32 %.0.lcssa to i64
  %14 = shl nsw i64 %13, 2
  %15 = add nsw i64 %14, %12
  %16 = tail call noalias ptr @malloc(i64 noundef %15) #11
  %17 = getelementptr inbounds nuw i8, ptr %16, i64 %12
  store ptr %17, ptr %16, align 8, !tbaa !44
  br i1 %4, label %.lr.ph66, label %.critedge2

.lr.ph66:                                         ; preds = %.critedge
  %18 = getelementptr i8, ptr %0, i64 8
  %.not = icmp eq i32 %1, 0
  br i1 %.not, label %.lr.ph66.split.us, label %.lr.ph66.split

.lr.ph66.split.us:                                ; preds = %.lr.ph66
  %.val.us = load ptr, ptr %18, align 8, !tbaa !16
  br label %19

19:                                               ; preds = %.critedge4.us, %.lr.ph66.split.us
  %indvars.iv80 = phi i64 [ %indvars.iv.next81, %.critedge4.us ], [ 0, %.lr.ph66.split.us ]
  %.04764.us = phi i32 [ %28, %.critedge4.us ], [ 0, %.lr.ph66.split.us ]
  %20 = getelementptr inbounds nuw ptr, ptr %.val.us, i64 %indvars.iv80
  %21 = load ptr, ptr %20, align 8, !tbaa !18
  %22 = load ptr, ptr %16, align 8, !tbaa !44
  %23 = sext i32 %.04764.us to i64
  %24 = getelementptr inbounds i32, ptr %22, i64 %23
  %25 = getelementptr inbounds nuw ptr, ptr %16, i64 %indvars.iv80
  store ptr %24, ptr %25, align 8, !tbaa !44
  %26 = getelementptr i8, ptr %21, i64 4
  %.val51.us = load i32, ptr %26, align 4, !tbaa !19
  %27 = add i32 %.04764.us, 1
  %28 = add i32 %27, %.val51.us
  %29 = icmp sgt i32 %.val51.us, 0
  br i1 %29, label %.lr.ph61.us, label %.critedge4.us

.critedge4.us.loopexit:                           ; preds = %35
  %30 = and i64 %indvars.iv.next78, 4294967295
  br label %.critedge4.us

.critedge4.us:                                    ; preds = %.critedge4.us.loopexit, %19
  %.048.lcssa.us = phi i64 [ 0, %19 ], [ %30, %.critedge4.us.loopexit ]
  %31 = getelementptr inbounds nuw i32, ptr %24, i64 %.048.lcssa.us
  store i32 0, ptr %31, align 4, !tbaa !25
  %indvars.iv.next81 = add nuw nsw i64 %indvars.iv80, 1
  %.val56.us = load i32, ptr %3, align 4, !tbaa !33
  %32 = sext i32 %.val56.us to i64
  %33 = icmp slt i64 %indvars.iv.next81, %32
  br i1 %33, label %19, label %.critedge2, !llvm.loop !45

.lr.ph61.us:                                      ; preds = %19
  %34 = getelementptr i8, ptr %21, i64 8
  %.val53.us.us = load ptr, ptr %34, align 8, !tbaa !22
  br label %35

35:                                               ; preds = %35, %.lr.ph61.us
  %indvars.iv77 = phi i64 [ %indvars.iv.next78, %35 ], [ 0, %.lr.ph61.us ]
  %36 = getelementptr inbounds nuw i32, ptr %.val53.us.us, i64 %indvars.iv77
  %37 = load i32, ptr %36, align 4, !tbaa !25
  %38 = getelementptr inbounds nuw i32, ptr %24, i64 %indvars.iv77
  store i32 %37, ptr %38, align 4, !tbaa !25
  %indvars.iv.next78 = add nuw nsw i64 %indvars.iv77, 1
  %.val50.us.us = load i32, ptr %26, align 4, !tbaa !19
  %39 = sext i32 %.val50.us.us to i64
  %40 = icmp slt i64 %indvars.iv.next78, %39
  br i1 %40, label %35, label %.critedge4.us.loopexit, !llvm.loop !46

.lr.ph66.split:                                   ; preds = %.lr.ph66, %.critedge4
  %indvars.iv74 = phi i64 [ %indvars.iv.next75, %.critedge4 ], [ 0, %.lr.ph66 ]
  %.04764 = phi i32 [ %49, %.critedge4 ], [ 0, %.lr.ph66 ]
  %.val = load ptr, ptr %18, align 8, !tbaa !16
  %41 = getelementptr inbounds nuw ptr, ptr %.val, i64 %indvars.iv74
  %42 = load ptr, ptr %41, align 8, !tbaa !18
  %43 = load ptr, ptr %16, align 8, !tbaa !44
  %44 = sext i32 %.04764 to i64
  %45 = getelementptr inbounds i32, ptr %43, i64 %44
  %46 = getelementptr inbounds nuw ptr, ptr %16, i64 %indvars.iv74
  store ptr %45, ptr %46, align 8, !tbaa !44
  %47 = getelementptr i8, ptr %42, i64 4
  %.val51 = load i32, ptr %47, align 4, !tbaa !19
  %48 = add i32 %.04764, 1
  %49 = add i32 %48, %.val51
  %50 = trunc nuw nsw i64 %indvars.iv74 to i32
  %51 = tail call i32 (ptr, ...) @printf(ptr noundef nonnull dereferenceable(1) @.str.2, i32 noundef %50)
  %.val5059 = load i32, ptr %47, align 4, !tbaa !19
  %52 = icmp sgt i32 %.val5059, 0
  br i1 %52, label %.lr.ph61, label %.critedge4

.lr.ph61:                                         ; preds = %.lr.ph66.split
  %53 = getelementptr i8, ptr %42, i64 8
  br label %54

54:                                               ; preds = %.lr.ph61, %54
  %indvars.iv71 = phi i64 [ 0, %.lr.ph61 ], [ %indvars.iv.next72, %54 ]
  %.val53 = load ptr, ptr %53, align 8, !tbaa !22
  %55 = getelementptr inbounds nuw i32, ptr %.val53, i64 %indvars.iv71
  %56 = load i32, ptr %55, align 4, !tbaa !25
  %57 = load ptr, ptr %46, align 8, !tbaa !44
  %58 = getelementptr inbounds nuw i32, ptr %57, i64 %indvars.iv71
  store i32 %56, ptr %58, align 4, !tbaa !25
  %59 = and i32 %56, 65535
  %60 = ashr i32 %56, 16
  %61 = tail call i32 (ptr, ...) @printf(ptr noundef nonnull dereferenceable(1) @.str.3, i32 noundef %59, i32 noundef %60)
  %indvars.iv.next72 = add nuw nsw i64 %indvars.iv71, 1
  %.val50 = load i32, ptr %47, align 4, !tbaa !19
  %62 = sext i32 %.val50 to i64
  %63 = icmp slt i64 %indvars.iv.next72, %62
  br i1 %63, label %54, label %.critedge4.loopexit, !llvm.loop !46

.critedge4.loopexit:                              ; preds = %54
  %64 = and i64 %indvars.iv.next72, 4294967295
  br label %.critedge4

.critedge4:                                       ; preds = %.critedge4.loopexit, %.lr.ph66.split
  %.048.lcssa = phi i64 [ 0, %.lr.ph66.split ], [ %64, %.critedge4.loopexit ]
  %putchar = tail call i32 @putchar(i32 10)
  %65 = load ptr, ptr %46, align 8, !tbaa !44
  %66 = getelementptr inbounds nuw i32, ptr %65, i64 %.048.lcssa
  store i32 0, ptr %66, align 4, !tbaa !25
  %indvars.iv.next75 = add nuw nsw i64 %indvars.iv74, 1
  %.val56 = load i32, ptr %3, align 4, !tbaa !33
  %67 = sext i32 %.val56 to i64
  %68 = icmp slt i64 %indvars.iv.next75, %67
  br i1 %68, label %.lr.ph66.split, label %.critedge2, !llvm.loop !45

.critedge2:                                       ; preds = %.critedge4, %.critedge4.us, %.critedge
  ret ptr %16
}